target datalayout = "e-m:e-p270:32:32-p271:32:32-p272:64:64-i64:64-i128:128-f80:128-n8:16:32:64-S128"
target triple = "x86_64-pc-linux-gnu"

%struct.SEIRawMessage = type { i32, i32, ptr, ptr, ptr, i64 }
%struct.SEIRawMessageList = type { ptr, i32, i32 }

; Function Attrs: nounwind uwtable
define void @ff_cbs_sei_free_message_list(ptr noundef %0) #0 {
  %2 = alloca ptr, align 8
  %3 = alloca i32, align 4
  %4 = alloca ptr, align 8
  store ptr %0, ptr %2, align 8, !tbaa !29
  call void @llvm.lifetime.start.p0(i64 4, ptr %3) #7
  store i32 0, ptr %3, align 4, !tbaa !27
  br label %5

5:                                                ; preds = %23, %1
  %6 = load i32, ptr %3, align 4, !tbaa !27
  %7 = load ptr, ptr %2, align 8, !tbaa !29
  %8 = getelementptr inbounds nuw %struct.SEIRawMessageList, ptr %7, i32 0, i32 1
  %9 = load i32, ptr %8, align 8, !tbaa !33
  %10 = icmp slt i32 %6, %9
  br i1 %10, label %12, label %11

11:                                               ; preds = %5
  call void @llvm.lifetime.end.p0(i64 4, ptr %3) #7
  br label %26

12:                                               ; preds = %5
  call void @llvm.lifetime.start.p0(i64 8, ptr %4) #7
  %13 = load ptr, ptr %2, align 8, !tbaa !29
  %14 = getelementptr inbounds nuw %struct.SEIRawMessageList, ptr %13, i32 0, i32 0
  %15 = load ptr, ptr %14, align 8, !tbaa !34
  %16 = load i32, ptr %3, align 4, !tbaa !27
  %17 = sext i32 %16 to i64
  %18 = getelementptr inbounds %struct.SEIRawMessage, ptr %15, i64 %17
  store ptr %18, ptr %4, align 8, !tbaa !4
  %19 = load ptr, ptr %4, align 8, !tbaa !4
  %20 = getelementptr inbounds nuw %struct.SEIRawMessage, ptr %19, i32 0, i32 3
  call void @av_refstruct_unref(ptr noundef %20)
  %21 = load ptr, ptr %4, align 8, !tbaa !4
  %22 = getelementptr inbounds nuw %struct.SEIRawMessage, ptr %21, i32 0, i32 4
  call void @av_refstruct_unref(ptr noundef %22)
  call void @llvm.lifetime.end.p0(i64 8, ptr %4) #7
  br label %23

23:                                               ; preds = %12
  %24 = load i32, ptr %3, align 4, !tbaa !27
  %25 = add nsw i32 %24, 1
  store i32 %25, ptr %3, align 4, !tbaa !27
  br label %5, !llvm.loop !35

26:                                               ; preds = %11
  %27 = load ptr, ptr %2, align 8, !tbaa !29
  %28 = getelementptr inbounds nuw %struct.SEIRawMessageList, ptr %27, i32 0, i32 0
  %29 = load ptr, ptr %28, align 8, !tbaa !34
  call void @av_free(ptr noundef %29)
  ret void
}