; Function Attrs: nounwind uwtable
define void @ff_cbs_sei_free_message_list(ptr noundef readonly captures(none) %0) local_unnamed_addr #0 {
  %2 = getelementptr inbounds nuw i8, ptr %0, i64 8
  %3 = load i32, ptr %2, align 8, !tbaa !20
  %4 = icmp sgt i32 %3, 0
  br i1 %4, label %.lr.ph, label %._crit_edge

._crit_edge:                                      ; preds = %.lr.ph, %1
  %5 = load ptr, ptr %0, align 8, !tbaa !21
  tail call void @av_free(ptr noundef %5) #6
  ret void

.lr.ph:                                           ; preds = %1, %.lr.ph
  %indvars.iv = phi i64 [ %indvars.iv.next, %.lr.ph ], [ 0, %1 ]
  %6 = load ptr, ptr %0, align 8, !tbaa !21
  %7 = getelementptr inbounds nuw %struct.SEIRawMessage, ptr %6, i64 %indvars.iv
  %8 = getelementptr inbounds nuw i8, ptr %7, i64 16
  tail call void @av_refstruct_unref(ptr noundef nonnull %8) #6
  %9 = getelementptr inbounds nuw i8, ptr %7, i64 24
  tail call void @av_refstruct_unref(ptr noundef nonnull %9) #6
  %indvars.iv.next = add nuw nsw i64 %indvars.iv, 1
  %10 = load i32, ptr %2, align 8, !tbaa !20
  %11 = sext i32 %10 to i64
  %12 = icmp slt i64 %indvars.iv.next, %11
  br i1 %12, label %.lr.ph, label %._crit_edge, !llvm.loop !22
}